target datalayout = "e-m:e-p270:32:32-p271:32:32-p272:64:64-i64:64-i128:128-f80:128-n8:16:32:64-S128"
target triple = "x86_64-pc-linux-gnu"

%struct.pmix_hash_type_methods_t = type { ptr, ptr }
%struct.pmix_hash_table_t = type { %struct.pmix_object_t, ptr, ptr, i64, i64, i64, i32, i32, i32, i32, ptr }
%struct.pmix_object_t = type { %union.pthread_mutex_t, ptr, i32, %struct.pmix_tma }
%union.pthread_mutex_t = type { %struct.__pthread_mutex_s }
%struct.__pthread_mutex_s = type { i32, i32, i32, i32, i32, i16, i16, %struct.__pthread_internal_list }
%struct.__pthread_internal_list = type { ptr, ptr }
%struct.pmix_tma = type { ptr, ptr, ptr, ptr, ptr, ptr, ptr, ptr }
%struct.pmix_hash_element_t = type { i32, %union.anon, ptr, ptr }
%union.anon = type { %struct.anon }
%struct.anon = type { ptr, i64 }

@pmix_hash_type_methods_ptr = internal constant %struct.pmix_hash_type_methods_t { ptr @pmix_hash_destruct_elt_ptr, ptr @pmix_hash_hash_elt_ptr }, align 8

; Function Attrs: inlinehint nounwind uwtable
define internal ptr @pmix_tma_malloc(ptr noundef %0, i64 noundef %1) #2 {
  %3 = alloca ptr, align 8
  %4 = alloca ptr, align 8
  %5 = alloca i64, align 8
  store ptr %0, ptr %4, align 8, !tbaa !26
  store i64 %1, ptr %5, align 8, !tbaa !28
  %6 = load ptr, ptr %4, align 8, !tbaa !26
  %7 = icmp ne ptr null, %6
  br i1 %7, label %8, label %15

8:                                                ; preds = %2
  %9 = load ptr, ptr %4, align 8, !tbaa !26
  %10 = getelementptr inbounds nuw %struct.pmix_tma, ptr %9, i32 0, i32 0
  %11 = load ptr, ptr %10, align 8, !tbaa !50
  %12 = load ptr, ptr %4, align 8, !tbaa !26
  %13 = load i64, ptr %5, align 8, !tbaa !28
  %14 = call ptr %11(ptr noundef %12, i64 noundef %13)
  store ptr %14, ptr %3, align 8
  br label %18

15:                                               ; preds = %2
  %16 = load i64, ptr %5, align 8, !tbaa !28
  %17 = call noalias ptr @malloc(i64 noundef %16) #12
  store ptr %17, ptr %3, align 8
  br label %18

18:                                               ; preds = %15, %8
  %19 = load ptr, ptr %3, align 8
  ret ptr %19
}

; Function Attrs: nounwind uwtable
define internal i64 @pmix_hash_hash_key_ptr(ptr noundef %0, i64 noundef %1) #0 {
  %3 = alloca ptr, align 8
  %4 = alloca i64, align 8
  %5 = alloca i64, align 8
  %6 = alloca ptr, align 8
  %7 = alloca i64, align 8
  store ptr %0, ptr %3, align 8, !tbaa !42
  store i64 %1, ptr %4, align 8, !tbaa !28
  call void @llvm.lifetime.start.p0(i64 8, ptr %5) #9
  call void @llvm.lifetime.start.p0(i64 8, ptr %6) #9
  call void @llvm.lifetime.start.p0(i64 8, ptr %7) #9
  store i64 0, ptr %5, align 8, !tbaa !28
  %8 = load ptr, ptr %3, align 8, !tbaa !42
  store ptr %8, ptr %6, align 8, !tbaa !48
  store i64 0, ptr %7, align 8, !tbaa !28
  br label %9

9:                                                ; preds = %21, %2
  %10 = load i64, ptr %7, align 8, !tbaa !28
  %11 = load i64, ptr %4, align 8, !tbaa !28
  %12 = icmp ult i64 %10, %11
  br i1 %12, label %13, label %24

13:                                               ; preds = %9
  %14 = load i64, ptr %5, align 8, !tbaa !28
  %15 = mul i64 31, %14
  %16 = load ptr, ptr %6, align 8, !tbaa !48
  %17 = getelementptr inbounds nuw i8, ptr %16, i32 1
  store ptr %17, ptr %6, align 8, !tbaa !48
  %18 = load i8, ptr %16, align 1, !tbaa !43
  %19 = zext i8 %18 to i64
  %20 = add i64 %15, %19
  store i64 %20, ptr %5, align 8, !tbaa !28
  br label %21

21:                                               ; preds = %13
  %22 = load i64, ptr %7, align 8, !tbaa !28
  %23 = add i64 %22, 1
  store i64 %23, ptr %7, align 8, !tbaa !28
  br label %9, !llvm.loop !49

24:                                               ; preds = %9
  %25 = load i64, ptr %5, align 8, !tbaa !28
  call void @llvm.lifetime.end.p0(i64 8, ptr %7) #9
  call void @llvm.lifetime.end.p0(i64 8, ptr %6) #9
  call void @llvm.lifetime.end.p0(i64 8, ptr %5) #9
  ret i64 %25
}

; Function Attrs: inlinehint nounwind uwtable
define internal ptr @pmix_obj_get_tma(ptr noundef %0) #2 {
  %2 = alloca ptr, align 8
  %3 = alloca ptr, align 8
  store ptr %0, ptr %3, align 8, !tbaa !30
  %4 = load ptr, ptr %3, align 8, !tbaa !30
  %5 = getelementptr inbounds nuw %struct.pmix_object_t, ptr %4, i32 0, i32 3
  %6 = getelementptr inbounds nuw %struct.pmix_tma, ptr %5, i32 0, i32 0
  %7 = load ptr, ptr %6, align 8, !tbaa !32
  %8 = icmp ne ptr %7, null
  br i1 %8, label %9, label %12

9:                                                ; preds = %1
  %10 = load ptr, ptr %3, align 8, !tbaa !30
  %11 = getelementptr inbounds nuw %struct.pmix_object_t, ptr %10, i32 0, i32 3
  store ptr %11, ptr %2, align 8
  br label %13

12:                                               ; preds = %1
  store ptr null, ptr %2, align 8
  br label %13

13:                                               ; preds = %12, %9
  %14 = load ptr, ptr %2, align 8
  ret ptr %14
}

; Function Attrs: nounwind uwtable
define i32 @pmix_hash_table_set_value_ptr(ptr noundef %0, ptr noundef %1, i64 noundef %2, ptr noundef %3) #0 {
  %5 = alloca i32, align 4
  %6 = alloca ptr, align 8
  %7 = alloca ptr, align 8
  %8 = alloca i64, align 8
  %9 = alloca ptr, align 8
  %10 = alloca i32, align 4
  %11 = alloca i64, align 8
  %12 = alloca i64, align 8
  %13 = alloca ptr, align 8
  %14 = alloca ptr, align 8
  %15 = alloca ptr, align 8
  %16 = alloca i32, align 4
  store ptr %0, ptr %6, align 8, !tbaa !3
  store ptr %1, ptr %7, align 8, !tbaa !42
  store i64 %2, ptr %8, align 8, !tbaa !28
  store ptr %3, ptr %9, align 8, !tbaa !42
  call void @llvm.lifetime.start.p0(i64 4, ptr %10) #9
  call void @llvm.lifetime.start.p0(i64 8, ptr %11) #9
  call void @llvm.lifetime.start.p0(i64 8, ptr %12) #9
  %17 = load ptr, ptr %6, align 8, !tbaa !3
  %18 = getelementptr inbounds nuw %struct.pmix_hash_table_t, ptr %17, i32 0, i32 3
  %19 = load i64, ptr %18, align 8, !tbaa !20
  store i64 %19, ptr %12, align 8, !tbaa !28
  call void @llvm.lifetime.start.p0(i64 8, ptr %13) #9
  call void @llvm.lifetime.start.p0(i64 8, ptr %14) #9
  %20 = load ptr, ptr %6, align 8, !tbaa !3
  %21 = getelementptr inbounds nuw %struct.pmix_hash_table_t, ptr %20, i32 0, i32 0
  %22 = call ptr @pmix_obj_get_tma(ptr noundef %21)
  store ptr %22, ptr %14, align 8, !tbaa !26
  %23 = load ptr, ptr %6, align 8, !tbaa !3
  %24 = getelementptr inbounds nuw %struct.pmix_hash_table_t, ptr %23, i32 0, i32 10
  store ptr @pmix_hash_type_methods_ptr, ptr %24, align 8, !tbaa !25
  %25 = load ptr, ptr %7, align 8, !tbaa !42
  %26 = load i64, ptr %8, align 8, !tbaa !28
  %27 = call i64 @pmix_hash_hash_key_ptr(ptr noundef %25, i64 noundef %26)
  %28 = load i64, ptr %12, align 8, !tbaa !28
  %29 = urem i64 %27, %28
  store i64 %29, ptr %11, align 8, !tbaa !28
  br label %30

30:                                               ; preds = %111, %4
  %31 = load i64, ptr %11, align 8, !tbaa !28
  %32 = load i64, ptr %12, align 8, !tbaa !28
  %33 = icmp eq i64 %31, %32
  br i1 %33, label %34, label %35

34:                                               ; preds = %30
  store i64 0, ptr %11, align 8, !tbaa !28
  br label %35

35:                                               ; preds = %34, %30
  %36 = load ptr, ptr %6, align 8, !tbaa !3
  %37 = getelementptr inbounds nuw %struct.pmix_hash_table_t, ptr %36, i32 0, i32 2
  %38 = load ptr, ptr %37, align 8, !tbaa !8
  %39 = load i64, ptr %11, align 8, !tbaa !28
  %40 = getelementptr inbounds nuw %struct.pmix_hash_element_t, ptr %38, i64 %39
  store ptr %40, ptr %13, align 8, !tbaa !34
  %41 = load ptr, ptr %13, align 8, !tbaa !34
  %42 = getelementptr inbounds nuw %struct.pmix_hash_element_t, ptr %41, i32 0, i32 0
  %43 = load i32, ptr %42, align 8, !tbaa !35
  %44 = icmp ne i32 %43, 0
  br i1 %44, label %88, label %45

45:                                               ; preds = %35
  call void @llvm.lifetime.start.p0(i64 8, ptr %15) #9
  %46 = load ptr, ptr %14, align 8, !tbaa !26
  %47 = load i64, ptr %8, align 8, !tbaa !28
  %48 = call ptr @pmix_tma_malloc(ptr noundef %46, i64 noundef %47)
  store ptr %48, ptr %15, align 8, !tbaa !42
  %49 = load ptr, ptr %15, align 8, !tbaa !42
  %50 = load ptr, ptr %7, align 8, !tbaa !42
  %51 = load i64, ptr %8, align 8, !tbaa !28
  call void @llvm.memcpy.p0.p0.i64(ptr align 1 %49, ptr align 1 %50, i64 %51, i1 false)
  %52 = load ptr, ptr %15, align 8, !tbaa !42
  %53 = load ptr, ptr %13, align 8, !tbaa !34
  %54 = getelementptr inbounds nuw %struct.pmix_hash_element_t, ptr %53, i32 0, i32 1
  %55 = getelementptr inbounds nuw %struct.anon, ptr %54, i32 0, i32 0
  store ptr %52, ptr %55, align 8, !tbaa !43
  %56 = load i64, ptr %8, align 8, !tbaa !28
  %57 = load ptr, ptr %13, align 8, !tbaa !34
  %58 = getelementptr inbounds nuw %struct.pmix_hash_element_t, ptr %57, i32 0, i32 1
  %59 = getelementptr inbounds nuw %struct.anon, ptr %58, i32 0, i32 1
  store i64 %56, ptr %59, align 8, !tbaa !43
  %60 = load ptr, ptr %9, align 8, !tbaa !42
  %61 = load ptr, ptr %13, align 8, !tbaa !34
  %62 = getelementptr inbounds nuw %struct.pmix_hash_element_t, ptr %61, i32 0, i32 3
  store ptr %60, ptr %62, align 8, !tbaa !39
  %63 = load ptr, ptr %13, align 8, !tbaa !34
  %64 = getelementptr inbounds nuw %struct.pmix_hash_element_t, ptr %63, i32 0, i32 0
  store i32 1, ptr %64, align 8, !tbaa !35
  %65 = load ptr, ptr %14, align 8, !tbaa !26
  %66 = load ptr, ptr %13, align 8, !tbaa !34
  %67 = getelementptr inbounds nuw %struct.pmix_hash_element_t, ptr %66, i32 0, i32 2
  store ptr %65, ptr %67, align 8, !tbaa !44
  %68 = load ptr, ptr %6, align 8, !tbaa !3
  %69 = getelementptr inbounds nuw %struct.pmix_hash_table_t, ptr %68, i32 0, i32 4
  %70 = load i64, ptr %69, align 8, !tbaa !19
  %71 = add i64 %70, 1
  store i64 %71, ptr %69, align 8, !tbaa !19
  %72 = load ptr, ptr %6, align 8, !tbaa !3
  %73 = getelementptr inbounds nuw %struct.pmix_hash_table_t, ptr %72, i32 0, i32 4
  %74 = load i64, ptr %73, align 8, !tbaa !19
  %75 = load ptr, ptr %6, align 8, !tbaa !3
  %76 = getelementptr inbounds nuw %struct.pmix_hash_table_t, ptr %75, i32 0, i32 5
  %77 = load i64, ptr %76, align 8, !tbaa !18
  %78 = icmp uge i64 %74, %77
  br i1 %78, label %79, label %86

79:                                               ; preds = %45
  %80 = load ptr, ptr %6, align 8, !tbaa !3
  %81 = call i32 @pmix_hash_grow(ptr noundef %80)
  store i32 %81, ptr %10, align 4, !tbaa !29
  %82 = icmp ne i32 0, %81
  br i1 %82, label %83, label %85

83:                                               ; preds = %79
  %84 = load i32, ptr %10, align 4, !tbaa !29
  store i32 %84, ptr %5, align 4
  store i32 1, ptr %16, align 4
  br label %87

85:                                               ; preds = %79
  br label %86

86:                                               ; preds = %85, %45
  store i32 0, ptr %5, align 4
  store i32 1, ptr %16, align 4
  br label %87

87:                                               ; preds = %86, %83
  call void @llvm.lifetime.end.p0(i64 8, ptr %15) #9
  br label %114

88:                                               ; preds = %35
  %89 = load ptr, ptr %13, align 8, !tbaa !34
  %90 = getelementptr inbounds nuw %struct.pmix_hash_element_t, ptr %89, i32 0, i32 1
  %91 = getelementptr inbounds nuw %struct.anon, ptr %90, i32 0, i32 1
  %92 = load i64, ptr %91, align 8, !tbaa !43
  %93 = load i64, ptr %8, align 8, !tbaa !28
  %94 = icmp eq i64 %92, %93
  br i1 %94, label %95, label %108

95:                                               ; preds = %88
  %96 = load ptr, ptr %13, align 8, !tbaa !34
  %97 = getelementptr inbounds nuw %struct.pmix_hash_element_t, ptr %96, i32 0, i32 1
  %98 = getelementptr inbounds nuw %struct.anon, ptr %97, i32 0, i32 0
  %99 = load ptr, ptr %98, align 8, !tbaa !43
  %100 = load ptr, ptr %7, align 8, !tbaa !42
  %101 = load i64, ptr %8, align 8, !tbaa !28
  %102 = call i32 @memcmp(ptr noundef %99, ptr noundef %100, i64 noundef %101) #11
  %103 = icmp eq i32 0, %102
  br i1 %103, label %104, label %108

104:                                              ; preds = %95
  %105 = load ptr, ptr %9, align 8, !tbaa !42
  %106 = load ptr, ptr %13, align 8, !tbaa !34
  %107 = getelementptr inbounds nuw %struct.pmix_hash_element_t, ptr %106, i32 0, i32 3
  store ptr %105, ptr %107, align 8, !tbaa !39
  store i32 0, ptr %5, align 4
  store i32 1, ptr %16, align 4
  br label %114

108:                                              ; preds = %95, %88
  br label %109

109:                                              ; preds = %108
  br label %110

110:                                              ; preds = %109
  br label %111

111:                                              ; preds = %110
  %112 = load i64, ptr %11, align 8, !tbaa !28
  %113 = add i64 %112, 1
  store i64 %113, ptr %11, align 8, !tbaa !28
  br label %30

114:                                              ; preds = %104, %87
  call void @llvm.lifetime.end.p0(i64 8, ptr %14) #9
  call void @llvm.lifetime.end.p0(i64 8, ptr %13) #9
  call void @llvm.lifetime.end.p0(i64 8, ptr %12) #9
  call void @llvm.lifetime.end.p0(i64 8, ptr %11) #9
  call void @llvm.lifetime.end.p0(i64 4, ptr %10) #9
  %115 = load i32, ptr %5, align 4
  ret i32 %115
}