; Function Attrs: nounwind uwtable
define range(i32 -29, 1) i32 @pmix_hash_table_set_value_ptr(ptr noundef %0, ptr noundef readonly captures(none) %1, i64 noundef %2, ptr noundef %3) local_unnamed_addr #1 {
  %5 = getelementptr inbounds nuw i8, ptr %0, i64 136
  %6 = load i64, ptr %5, align 8, !tbaa !11
  %7 = getelementptr inbounds nuw i8, ptr %0, i64 56
  %8 = load ptr, ptr %7, align 8, !tbaa !3
  %.not.i = icmp eq ptr %8, null
  %..i = select i1 %.not.i, ptr null, ptr %7
  %9 = getelementptr inbounds nuw i8, ptr %0, i64 176
  store ptr @pmix_hash_type_methods_ptr, ptr %9, align 8, !tbaa !21
  %.not.i43 = icmp eq i64 %2, 0
  br i1 %.not.i43, label %pmix_hash_hash_key_ptr.exit, label %.lr.ph.i

.lr.ph.i:                                         ; preds = %4, %.lr.ph.i
  %.010.i = phi i64 [ %15, %.lr.ph.i ], [ 0, %4 ]
  %.069.i = phi ptr [ %11, %.lr.ph.i ], [ %1, %4 ]
  %.078.i = phi i64 [ %14, %.lr.ph.i ], [ 0, %4 ]
  %10 = mul i64 %.078.i, 31
  %11 = getelementptr inbounds nuw i8, ptr %.069.i, i64 1
  %12 = load i8, ptr %.069.i, align 1, !tbaa !36
  %13 = zext i8 %12 to i64
  %14 = add i64 %10, %13
  %15 = add nuw i64 %.010.i, 1
  %exitcond.not.i = icmp eq i64 %15, %2
  br i1 %exitcond.not.i, label %pmix_hash_hash_key_ptr.exit, label %.lr.ph.i, !llvm.loop !44

pmix_hash_hash_key_ptr.exit:                      ; preds = %.lr.ph.i, %4
  %.07.lcssa.i = phi i64 [ 0, %4 ], [ %14, %.lr.ph.i ]
  %16 = urem i64 %.07.lcssa.i, %6
  %17 = getelementptr inbounds nuw i8, ptr %0, i64 128
  %18 = load ptr, ptr %17, align 8, !tbaa !17
  %19 = getelementptr inbounds nuw %struct.pmix_hash_element_t, ptr %18, i64 %16
  %20 = load i32, ptr %19, align 8, !tbaa !18
  %.not47 = icmp eq i32 %20, 0
  br i1 %.not47, label %._crit_edge, label %.lr.ph

._crit_edge:                                      ; preds = %47, %pmix_hash_hash_key_ptr.exit
  %.lcssa = phi ptr [ %19, %pmix_hash_hash_key_ptr.exit ], [ %50, %47 ]
  br i1 %.not.i, label %23, label %21

21:                                               ; preds = %._crit_edge
  %22 = tail call ptr %8(ptr noundef nonnull %7, i64 noundef %2) #13
  br label %pmix_tma_malloc.exit

23:                                               ; preds = %._crit_edge
  %24 = tail call noalias ptr @malloc(i64 noundef %2) #15
  br label %pmix_tma_malloc.exit

pmix_tma_malloc.exit:                             ; preds = %21, %23
  %.0.i = phi ptr [ %22, %21 ], [ %24, %23 ]
  tail call void @llvm.memcpy.p0.p0.i64(ptr align 1 %.0.i, ptr align 1 %1, i64 %2, i1 false)
  %25 = getelementptr inbounds nuw i8, ptr %.lcssa, i64 8
  store ptr %.0.i, ptr %25, align 8, !tbaa !36
  %26 = getelementptr inbounds nuw i8, ptr %.lcssa, i64 16
  store i64 %2, ptr %26, align 8, !tbaa !36
  %27 = getelementptr inbounds nuw i8, ptr %.lcssa, i64 32
  store ptr %3, ptr %27, align 8, !tbaa !24
  store i32 1, ptr %.lcssa, align 8, !tbaa !18
  %28 = getelementptr inbounds nuw i8, ptr %.lcssa, i64 24
  store ptr %..i, ptr %28, align 8, !tbaa !38
  %29 = getelementptr inbounds nuw i8, ptr %0, i64 144
  %30 = load i64, ptr %29, align 8, !tbaa !27
  %31 = add i64 %30, 1
  store i64 %31, ptr %29, align 8, !tbaa !27
  %32 = getelementptr inbounds nuw i8, ptr %0, i64 152
  %33 = load i64, ptr %32, align 8, !tbaa !35
  %.not41 = icmp ult i64 %31, %33
  br i1 %.not41, label %36, label %34

34:                                               ; preds = %pmix_tma_malloc.exit
  %35 = tail call fastcc i32 @pmix_hash_grow(ptr noundef nonnull %0)
  %.not42 = icmp eq i32 %35, 0
  br i1 %.not42, label %36, label %52

36:                                               ; preds = %34, %pmix_tma_malloc.exit
  br label %52

.lr.ph:                                           ; preds = %pmix_hash_hash_key_ptr.exit, %47
  %37 = phi ptr [ %50, %47 ], [ %19, %pmix_hash_hash_key_ptr.exit ]
  %spec.store.select48 = phi i64 [ %spec.store.select, %47 ], [ %16, %pmix_hash_hash_key_ptr.exit ]
  %38 = getelementptr inbounds nuw i8, ptr %37, i64 16
  %39 = load i64, ptr %38, align 8, !tbaa !36
  %40 = icmp eq i64 %39, %2
  br i1 %40, label %41, label %47

41:                                               ; preds = %.lr.ph
  %42 = getelementptr inbounds nuw i8, ptr %37, i64 8
  %43 = load ptr, ptr %42, align 8, !tbaa !36
  %bcmp = tail call i32 @bcmp(ptr %43, ptr %1, i64 %2)
  %44 = icmp eq i32 %bcmp, 0
  br i1 %44, label %45, label %47

45:                                               ; preds = %41
  %46 = getelementptr inbounds nuw i8, ptr %37, i64 32
  store ptr %3, ptr %46, align 8, !tbaa !24
  br label %52

47:                                               ; preds = %.lr.ph, %41
  %48 = add i64 %spec.store.select48, 1
  %49 = icmp eq i64 %48, %6
  %spec.store.select = select i1 %49, i64 0, i64 %48
  %50 = getelementptr inbounds nuw %struct.pmix_hash_element_t, ptr %18, i64 %spec.store.select
  %51 = load i32, ptr %50, align 8, !tbaa !18
  %.not = icmp eq i32 %51, 0
  br i1 %.not, label %._crit_edge, label %.lr.ph

52:                                               ; preds = %36, %34, %45
  %.1 = phi i32 [ 0, %45 ], [ 0, %36 ], [ %35, %34 ]
  ret i32 %.1
}